; Function Attrs: mustprogress nofree norecurse nosync nounwind willreturn memory(argmem: read) uwtable
define noundef double @_ZNK10open_spiel13GameParameter18value_with_defaultIdEET_S2_(ptr noundef nonnull readonly align 8 captures(none) dereferenceable(108) %0, double noundef %1) local_unnamed_addr #6 align 2 personality ptr @__gxx_personality_v0 {
  %3 = getelementptr inbounds nuw i8, ptr %0, i64 104
  %4 = load i32, ptr %3, align 8
  %5 = icmp eq i32 %4, 1
  %6 = getelementptr inbounds nuw i8, ptr %0, i64 8
  %7 = load double, ptr %6, align 8
  %.0 = select i1 %5, double %7, double %1
  ret double %.0
}